#include <math.h>
#include <stdio.h>
#include <stdlib.h>
#include <string.h>

void main()
{
	int a=0,b=1,c=0,n,i;
	scanf("%d",&n);
	for(i=1;i<=n;i++)
	{
		if((i%7==0) || ((i>=70) && (i<80)) || i==17 || i==27 || i==37 || i==47 || i==57 || i==67 || i==87 || i==97 )
		{
			b=b+1;
			continue;
		}
		a=b*b;
		c=c+a;
		b=b+1;
	}
	printf("%d\n",c);
}