; ModuleID = '30/239.c'
source_filename = "30/239.c"
target datalayout = "e-m:e-p270:32:32-p271:32:32-p272:64:64-i64:64-f80:128-n8:16:32:64-S128"
target triple = "x86_64-pc-linux-gnu"

@.str = private unnamed_addr constant [3 x i8] c"%d\00", align 1
@.str.1 = private unnamed_addr constant [4 x i8] c"%d\0A\00", align 1

; Function Attrs: noinline nounwind uwtable
define dso_local void @main() #0 {
  %1 = alloca i32, align 4
  %2 = alloca i32, align 4
  %3 = alloca i32, align 4
  %4 = alloca i32, align 4
  %5 = alloca i32, align 4
  store i32 0, i32* %1, align 4
  store i32 1, i32* %2, align 4
  store i32 0, i32* %3, align 4
  %6 = call i32 (i8*, ...) @__isoc99_scanf(i8* getelementptr inbounds ([3 x i8], [3 x i8]* @.str, i64 0, i64 0), i32* %4)
  store i32 1, i32* %5, align 4
  br label %7

7:                                                ; preds = %57, %0
  %8 = load i32, i32* %5, align 4
  %9 = load i32, i32* %4, align 4
  %10 = icmp sle i32 %8, %9
  br i1 %10, label %11, label %60

11:                                               ; preds = %7
  %12 = load i32, i32* %5, align 4
  %13 = srem i32 %12, 7
  %14 = icmp eq i32 %13, 0
  br i1 %14, label %45, label %15

15:                                               ; preds = %11
  %16 = load i32, i32* %5, align 4
  %17 = icmp sge i32 %16, 70
  br i1 %17, label %18, label %21

18:                                               ; preds = %15
  %19 = load i32, i32* %5, align 4
  %20 = icmp slt i32 %19, 80
  br i1 %20, label %45, label %21

21:                                               ; preds = %18, %15
  %22 = load i32, i32* %5, align 4
  %23 = icmp eq i32 %22, 17
  br i1 %23, label %45, label %24

24:                                               ; preds = %21
  %25 = load i32, i32* %5, align 4
  %26 = icmp eq i32 %25, 27
  br i1 %26, label %45, label %27

27:                                               ; preds = %24
  %28 = load i32, i32* %5, align 4
  %29 = icmp eq i32 %28, 37
  br i1 %29, label %45, label %30

30:                                               ; preds = %27
  %31 = load i32, i32* %5, align 4
  %32 = icmp eq i32 %31, 47
  br i1 %32, label %45, label %33

33:                                               ; preds = %30
  %34 = load i32, i32* %5, align 4
  %35 = icmp eq i32 %34, 57
  br i1 %35, label %45, label %36

36:                                               ; preds = %33
  %37 = load i32, i32* %5, align 4
  %38 = icmp eq i32 %37, 67
  br i1 %38, label %45, label %39

39:                                               ; preds = %36
  %40 = load i32, i32* %5, align 4
  %41 = icmp eq i32 %40, 87
  br i1 %41, label %45, label %42

42:                                               ; preds = %39
  %43 = load i32, i32* %5, align 4
  %44 = icmp eq i32 %43, 97
  br i1 %44, label %45, label %48

45:                                               ; preds = %42, %39, %36, %33, %30, %27, %24, %21, %18, %11
  %46 = load i32, i32* %2, align 4
  %47 = add nsw i32 %46, 1
  store i32 %47, i32* %2, align 4
  br label %57

48:                                               ; preds = %42
  %49 = load i32, i32* %2, align 4
  %50 = load i32, i32* %2, align 4
  %51 = mul nsw i32 %49, %50
  store i32 %51, i32* %1, align 4
  %52 = load i32, i32* %3, align 4
  %53 = load i32, i32* %1, align 4
  %54 = add nsw i32 %52, %53
  store i32 %54, i32* %3, align 4
  %55 = load i32, i32* %2, align 4
  %56 = add nsw i32 %55, 1
  store i32 %56, i32* %2, align 4
  br label %57

57:                                               ; preds = %48, %45
  %58 = load i32, i32* %5, align 4
  %59 = add nsw i32 %58, 1
  store i32 %59, i32* %5, align 4
  br label %7

60:                                               ; preds = %7
  %61 = load i32, i32* %3, align 4
  %62 = call i32 (i8*, ...) @printf(i8* getelementptr inbounds ([4 x i8], [4 x i8]* @.str.1, i64 0, i64 0), i32 %61)
  ret void
}

declare dso_local i32 @__isoc99_scanf(i8*, ...) #1

declare dso_local i32 @printf(i8*, ...) #1


!llvm.module.flags = !{!0}
!llvm.ident = !{!1}

!0 = !{i32 1, !"wchar_size", i32 4}
!1 = !{!"clang version 10.0.0-4ubuntu1 "}
